target datalayout = "e-m:e-p270:32:32-p271:32:32-p272:64:64-i64:64-i128:128-f80:128-n8:16:32:64-S128"
target triple = "x86_64-pc-linux-gnu"

%struct.XML_Memory_Handling_Suite = type { ptr, ptr, ptr }
%struct.XML_ParserStruct = type { ptr, ptr, ptr, %struct.XML_Memory_Handling_Suite, ptr, ptr, ptr, i64, ptr, i64, i8, i32, ptr, ptr, ptr, ptr, ptr, ptr, ptr, ptr, ptr, ptr, ptr, ptr, ptr, ptr, ptr, ptr, ptr, ptr, ptr, ptr, ptr, ptr, ptr, ptr, ptr, ptr, %struct.INIT_ENCODING, ptr, ptr, i8, i8, ptr, ptr, ptr, ptr, %struct.prolog_state, ptr, i32, ptr, ptr, ptr, ptr, ptr, i8, i32, ptr, ptr, ptr, ptr, ptr, ptr, ptr, ptr, ptr, i8, i8, ptr, ptr, ptr, ptr, ptr, ptr, i32, i32, i32, ptr, ptr, i64, i8, %struct.position, %struct.STRING_POOL, %struct.STRING_POOL, ptr, i32, i8, ptr, %struct.XML_ParsingStatus, i8, i8, i32, i64, %struct.accounting, %struct.entity_stats }
%struct.INIT_ENCODING = type { %struct.encoding, ptr }
%struct.encoding = type { [4 x ptr], [2 x ptr], ptr, ptr, ptr, ptr, ptr, ptr, ptr, ptr, ptr, ptr, i32, i8, i8 }
%struct.prolog_state = type { ptr, i32, i32, i32, i32, i32 }
%struct.position = type { i64, i64 }
%struct.STRING_POOL = type { ptr, ptr, ptr, ptr, ptr, ptr }
%struct.XML_ParsingStatus = type { i32, i8 }
%struct.accounting = type { i64, i64, i64, float, i64 }
%struct.entity_stats = type { i32, i32, i32, i64 }

; Function Attrs: nounwind uwtable
define hidden i32 @PyExpat_XML_StopParser(ptr noundef %0, i8 noundef zeroext %1) #0 {
  %3 = alloca i32, align 4
  %4 = alloca ptr, align 8
  %5 = alloca i8, align 1
  store ptr %0, ptr %4, align 8, !tbaa !12
  store i8 %1, ptr %5, align 1, !tbaa !9
  %6 = load ptr, ptr %4, align 8, !tbaa !12
  %7 = icmp eq ptr %6, null
  br i1 %7, label %8, label %9

8:                                                ; preds = %2
  store i32 0, ptr %3, align 4
  br label %52

9:                                                ; preds = %2
  %10 = load ptr, ptr %4, align 8, !tbaa !12
  %11 = getelementptr inbounds nuw %struct.XML_ParserStruct, ptr %10, i32 0, i32 88
  %12 = getelementptr inbounds nuw %struct.XML_ParsingStatus, ptr %11, i32 0, i32 0
  %13 = load i32, ptr %12, align 8, !tbaa !143
  switch i32 %13, label %50 [
    i32 0, label %14
    i32 3, label %17
    i32 2, label %27
    i32 1, label %30
  ]

14:                                               ; preds = %9
  %15 = load ptr, ptr %4, align 8, !tbaa !12
  %16 = getelementptr inbounds nuw %struct.XML_ParserStruct, ptr %15, i32 0, i32 49
  store i32 44, ptr %16, align 8, !tbaa !136
  store i32 0, ptr %3, align 4
  br label %52

17:                                               ; preds = %9
  %18 = load i8, ptr %5, align 1, !tbaa !9
  %19 = icmp ne i8 %18, 0
  br i1 %19, label %20, label %23

20:                                               ; preds = %17
  %21 = load ptr, ptr %4, align 8, !tbaa !12
  %22 = getelementptr inbounds nuw %struct.XML_ParserStruct, ptr %21, i32 0, i32 49
  store i32 33, ptr %22, align 8, !tbaa !136
  store i32 0, ptr %3, align 4
  br label %52

23:                                               ; preds = %17
  %24 = load ptr, ptr %4, align 8, !tbaa !12
  %25 = getelementptr inbounds nuw %struct.XML_ParserStruct, ptr %24, i32 0, i32 88
  %26 = getelementptr inbounds nuw %struct.XML_ParsingStatus, ptr %25, i32 0, i32 0
  store i32 2, ptr %26, align 8, !tbaa !143
  br label %51

27:                                               ; preds = %9
  %28 = load ptr, ptr %4, align 8, !tbaa !12
  %29 = getelementptr inbounds nuw %struct.XML_ParserStruct, ptr %28, i32 0, i32 49
  store i32 36, ptr %29, align 8, !tbaa !136
  store i32 0, ptr %3, align 4
  br label %52

30:                                               ; preds = %9
  %31 = load i8, ptr %5, align 1, !tbaa !9
  %32 = icmp ne i8 %31, 0
  br i1 %32, label %33, label %45

33:                                               ; preds = %30
  %34 = load ptr, ptr %4, align 8, !tbaa !12
  %35 = getelementptr inbounds nuw %struct.XML_ParserStruct, ptr %34, i32 0, i32 89
  %36 = load i8, ptr %35, align 8, !tbaa !144
  %37 = icmp ne i8 %36, 0
  br i1 %37, label %38, label %41

38:                                               ; preds = %33
  %39 = load ptr, ptr %4, align 8, !tbaa !12
  %40 = getelementptr inbounds nuw %struct.XML_ParserStruct, ptr %39, i32 0, i32 49
  store i32 37, ptr %40, align 8, !tbaa !136
  store i32 0, ptr %3, align 4
  br label %52

41:                                               ; preds = %33
  %42 = load ptr, ptr %4, align 8, !tbaa !12
  %43 = getelementptr inbounds nuw %struct.XML_ParserStruct, ptr %42, i32 0, i32 88
  %44 = getelementptr inbounds nuw %struct.XML_ParsingStatus, ptr %43, i32 0, i32 0
  store i32 3, ptr %44, align 8, !tbaa !143
  br label %49

45:                                               ; preds = %30
  %46 = load ptr, ptr %4, align 8, !tbaa !12
  %47 = getelementptr inbounds nuw %struct.XML_ParserStruct, ptr %46, i32 0, i32 88
  %48 = getelementptr inbounds nuw %struct.XML_ParsingStatus, ptr %47, i32 0, i32 0
  store i32 2, ptr %48, align 8, !tbaa !143
  br label %49

49:                                               ; preds = %45, %41
  br label %51

50:                                               ; preds = %9
  br label %51

51:                                               ; preds = %50, %49, %23
  store i32 1, ptr %3, align 4
  br label %52

52:                                               ; preds = %51, %38, %27, %20, %14, %8
  %53 = load i32, ptr %3, align 4
  ret i32 %53
}