; Function Attrs: mustprogress nofree norecurse nosync nounwind willreturn memory(argmem: readwrite) uwtable
define hidden range(i32 0, 2) i32 @PyExpat_XML_StopParser(ptr noundef %0, i8 noundef zeroext %1) local_unnamed_addr #4 {
  %3 = icmp eq ptr %0, null
  br i1 %3, label %23, label %4

4:                                                ; preds = %2
  %5 = getelementptr inbounds nuw i8, ptr %0, i64 920
  %6 = load i32, ptr %5, align 8, !tbaa !113
  switch i32 %6, label %23 [
    i32 0, label %7
    i32 3, label %9
    i32 2, label %13
    i32 1, label %15
  ]

7:                                                ; preds = %4
  %8 = getelementptr inbounds nuw i8, ptr %0, i64 552
  store i32 44, ptr %8, align 8, !tbaa !109
  br label %23

9:                                                ; preds = %4
  %.not14 = icmp eq i8 %1, 0
  br i1 %.not14, label %12, label %10

10:                                               ; preds = %9
  %11 = getelementptr inbounds nuw i8, ptr %0, i64 552
  store i32 33, ptr %11, align 8, !tbaa !109
  br label %23

12:                                               ; preds = %9
  store i32 2, ptr %5, align 8, !tbaa !113
  br label %23

13:                                               ; preds = %4
  %14 = getelementptr inbounds nuw i8, ptr %0, i64 552
  store i32 36, ptr %14, align 8, !tbaa !109
  br label %23

15:                                               ; preds = %4
  %.not = icmp eq i8 %1, 0
  br i1 %.not, label %22, label %16

16:                                               ; preds = %15
  %17 = getelementptr inbounds nuw i8, ptr %0, i64 928
  %18 = load i8, ptr %17, align 8, !tbaa !114
  %.not13 = icmp eq i8 %18, 0
  br i1 %.not13, label %21, label %19

19:                                               ; preds = %16
  %20 = getelementptr inbounds nuw i8, ptr %0, i64 552
  store i32 37, ptr %20, align 8, !tbaa !109
  br label %23

21:                                               ; preds = %16
  store i32 3, ptr %5, align 8, !tbaa !113
  br label %23

22:                                               ; preds = %15
  store i32 2, ptr %5, align 8, !tbaa !113
  br label %23

23:                                               ; preds = %12, %22, %21, %4, %2, %19, %13, %10, %7
  %.0 = phi i32 [ 0, %19 ], [ 0, %13 ], [ 0, %10 ], [ 0, %7 ], [ 0, %2 ], [ 1, %4 ], [ 1, %21 ], [ 1, %22 ], [ 1, %12 ]
  ret i32 %.0
}